# File generated by CompCert 3.17
# Command line: -O0 optbench.c -S -o without_optimization/assembler/ccomp_bench.s -DNO_ZERO_DIVIDE
	.section	.rodata.str1.1,"aMS",@progbits,1
	.align	1
__stringlit_3:
	.ascii	"Common subexpression elimination\012\000"
	.type	__stringlit_3, @object
	.size	__stringlit_3, . - __stringlit_3
	.section	.rodata.str1.1,"aMS",@progbits,1
	.align	1
__stringlit_2:
	.ascii	"This compiler handles divide-by-zero as                     an error\012\000"
	.type	__stringlit_2, @object
	.size	__stringlit_2, . - __stringlit_2
	.section	.rodata.str1.1,"aMS",@progbits,1
	.align	1
__stringlit_1:
	.ascii	"%d\000"
	.type	__stringlit_1, @object
	.size	__stringlit_1, . - __stringlit_1
	.section	.rodata.str1.1,"aMS",@progbits,1
	.align	1
__stringlit_4:
	.ascii	"This line should not be printed\000"
	.type	__stringlit_4, @object
	.size	__stringlit_4, . - __stringlit_4
	.section	.rodata.str1.1,"aMS",@progbits,1
	.align	1
__stringlit_5:
	.ascii	"%s\012\000"
	.type	__stringlit_5, @object
	.size	__stringlit_5, . - __stringlit_5
	.comm	i, 4, 4
	.comm	j, 4, 4
	.comm	k, 4, 4
	.comm	l, 4, 4
	.comm	m, 4, 4
	.comm	i2, 4, 4
	.comm	j2, 4, 4
	.comm	k2, 4, 4
	.comm	g3, 4, 4
	.comm	h3, 4, 4
	.comm	i3, 4, 4
	.comm	k3, 4, 4
	.comm	m3, 4, 4
	.comm	i4, 4, 4
	.comm	j4, 4, 4
	.comm	i5, 4, 4
	.comm	j5, 4, 4
	.comm	k5, 4, 4
	.comm	flt_1, 8, 8
	.comm	flt_2, 8, 8
	.comm	flt_3, 8, 8
	.comm	flt_4, 8, 8
	.comm	flt_5, 8, 8
	.comm	flt_6, 8, 8
	.comm	ivector, 12, 4
	.comm	ivector2, 3, 1
	.comm	ivector4, 12, 2
	.comm	ivector5, 1200, 4
	.text
	.align	16
	.globl main
main:
	.cfi_startproc
	subq	$8, %rsp
	.cfi_adjust_cfa_offset	8
	leaq	16(%rsp), %rax
	movq	%rax, 0(%rsp)
	movq    j4@GOTPCREL(%rip), %rsi
	movl	$2, %r8d
	movl	%r8d, 0(%rsi)
	leaq	__stringlit_1(%rip), %rdi
	movq    j4@GOTPCREL(%rip), %rdx
	movl	0(%rdx), %esi
	movl	$0, %eax
	call	printf@PLT
	movq    i2@GOTPCREL(%rip), %rax
	movl	0(%rax), %esi
	movq    j4@GOTPCREL(%rip), %rax
	movl	0(%rax), %r10d
	cmpl	%r10d, %esi
	jge	.L100
	movq    i4@GOTPCREL(%rip), %rax
	movl	0(%rax), %ecx
	movq    j4@GOTPCREL(%rip), %r9
	movl	0(%r9), %esi
	cmpl	%esi, %ecx
	setl	%al
	movzbl	%al, %eax
	jmp	.L101
.L100:
	xorl	%eax, %eax
.L101:
	cmpl	$0, %eax
	je	.L102
	movq    i2@GOTPCREL(%rip), %rsi
	movl	$2, %ecx
	movl	%ecx, 0(%rsi)
	leaq	__stringlit_1(%rip), %rdi
	movq    i2@GOTPCREL(%rip), %r9
	movl	0(%r9), %esi
	movl	$0, %eax
	call	printf@PLT
.L102:
	movq    j4@GOTPCREL(%rip), %rsi
	movq    k5@GOTPCREL(%rip), %r8
	movl	0(%r8), %r9d
	movl	%r9d, 0(%rsi)
	leaq	__stringlit_1(%rip), %rdi
	movq    j4@GOTPCREL(%rip), %rcx
	movl	0(%rcx), %esi
	movl	$0, %eax
	call	printf@PLT
	movq    i2@GOTPCREL(%rip), %rax
	movl	0(%rax), %eax
	movq    j4@GOTPCREL(%rip), %rdi
	movl	0(%rdi), %edi
	cmpl	%edi, %eax
	jge	.L103
	movq    i4@GOTPCREL(%rip), %rax
	movl	0(%rax), %r11d
	movq    j4@GOTPCREL(%rip), %rax
	movl	0(%rax), %ecx
	cmpl	%ecx, %r11d
	setl	%al
	movzbl	%al, %eax
	jmp	.L104
.L103:
	xorl	%eax, %eax
.L104:
	cmpl	$0, %eax
	je	.L105
	movq    i5@GOTPCREL(%rip), %r10
	movl	$3, %eax
	movl	%eax, 0(%r10)
	leaq	__stringlit_1(%rip), %rdi
	movq    i5@GOTPCREL(%rip), %rdx
	movl	0(%rdx), %esi
	movl	$0, %eax
	call	printf@PLT
.L105:
	movq    i3@GOTPCREL(%rip), %r9
	movl	$3, %r10d
	movl	%r10d, 0(%r9)
	movq    flt_1@GOTPCREL(%rip), %rdi
	movsd	.L106(%rip), %xmm1 # 2.39999999999999991
	movsd	.L107(%rip), %xmm2 # 6.29999999999999982
	addsd	%xmm2, %xmm1
	movsd	%xmm1, 0(%rdi)
	movq    i2@GOTPCREL(%rip), %rsi
	movl	$5, %edx
	movl	%edx, 0(%rsi)
	movq    j2@GOTPCREL(%rip), %r9
	movq    i@GOTPCREL(%rip), %r8
	movl	0(%r8), %ecx
	movl	%ecx, 0(%r9)
	movq    k2@GOTPCREL(%rip), %rax
	movq    i@GOTPCREL(%rip), %r10
	movl	0(%r10), %r10d
	movl	%r10d, 0(%rax)
	movq    i4@GOTPCREL(%rip), %rax
	movq    i@GOTPCREL(%rip), %rdi
	movl	0(%rdi), %edi
	movl	%edi, 0(%rax)
	movq    i5@GOTPCREL(%rip), %r11
	xorl	%r9d, %r9d
	movl	%r9d, 0(%r11)
	leaq	__stringlit_2(%rip), %rdi
	movl	$0, %eax
	call	printf@PLT
	movq    flt_3@GOTPCREL(%rip), %r8
	movsd	.L106(%rip), %xmm4 # 2.39999999999999991
	movsd	.L108(%rip), %xmm5 # 1
	mulsd	%xmm5, %xmm4
	movsd	%xmm4, 0(%r8)
	movq    flt_4@GOTPCREL(%rip), %rdi
	movsd	.L108(%rip), %xmm2 # 1
	movsd	.L109(%rip), %xmm4 # 9.99999999999999955e-08
	addsd	%xmm4, %xmm2
	movsd	%xmm2, 0(%rdi)
	movq    flt_5@GOTPCREL(%rip), %rcx
	movq    flt_6@GOTPCREL(%rip), %rdx
	movsd	0(%rdx), %xmm0
	xorpd	%xmm15, %xmm15
	mulsd	%xmm15, %xmm0
	movsd	%xmm0, 0(%rcx)
	movq    flt_6@GOTPCREL(%rip), %r11
	movq    flt_2@GOTPCREL(%rip), %rcx
	movsd	0(%rcx), %xmm3
	movq    flt_3@GOTPCREL(%rip), %rsi
	movsd	0(%rsi), %xmm4
	mulsd	%xmm4, %xmm3
	movsd	%xmm3, 0(%r11)
	movq    k3@GOTPCREL(%rip), %rdi
	movl	$1, %r10d
	movl	%r10d, 0(%rdi)
	movq    k3@GOTPCREL(%rip), %rcx
	movl	$1, %eax
	movl	%eax, 0(%rcx)
	movq    k2@GOTPCREL(%rip), %rsi
	movq    j5@GOTPCREL(%rip), %rax
	movl	0(%rax), %edi
	leal	0(,%edi,4), %eax
	movl	%eax, 0(%rsi)
	movq    i@GOTPCREL(%rip), %r9
	xorl	%r8d, %r8d
	movl	%r8d, 0(%r9)
.L110:
	movq    i@GOTPCREL(%rip), %rax
	movl	0(%rax), %eax
	cmpl	$5, %eax
	jg	.L111
	movq    ivector4@GOTPCREL(%rip), %rcx
	movq    i@GOTPCREL(%rip), %rsi
	movl	0(%rsi), %r9d
	movslq	%r9d, %r11
	movq    i@GOTPCREL(%rip), %r8
	movl	0(%r8), %eax
	leal	0(,%eax,2), %r10d
	movswl	%r10w, %r9d
	movw	%r9w, 0(%rcx,%r11,2)
	movq    i@GOTPCREL(%rip), %r9
	movq    i@GOTPCREL(%rip), %r8
	movl	0(%r8), %eax
	leal	1(%eax), %edi
	movl	%edi, 0(%r9)
	jmp	.L110
.L111:
	movq    j5@GOTPCREL(%rip), %r8
	xorl	%ecx, %ecx
	movl	%ecx, 0(%r8)
	movq    k5@GOTPCREL(%rip), %rax
	movl	$10000, %ecx
	movl	%ecx, 0(%rax)
.L112:
	movq    k5@GOTPCREL(%rip), %rdi
	movq    k5@GOTPCREL(%rip), %rcx
	movl	0(%rcx), %esi
	leal	-1(%esi), %r10d
	movl	%r10d, 0(%rdi)
	movq    j5@GOTPCREL(%rip), %rdi
	movq    j5@GOTPCREL(%rip), %r9
	movl	0(%r9), %esi
	leal	1(%esi), %r11d
	movl	%r11d, 0(%rdi)
	movq    i5@GOTPCREL(%rip), %rsi
	movq    k5@GOTPCREL(%rip), %r8
	movl	0(%r8), %r8d
	leal	0(%r8d,%r8d,2), %eax
	movq    j5@GOTPCREL(%rip), %r11
	movl	0(%r11), %r9d
	leal	0(%r9d,%r9d,4), %ecx
	cltd
	idivl	%ecx
	movl	%eax, 0(%rsi)
	movq    k5@GOTPCREL(%rip), %rax
	movl	0(%rax), %eax
	testl	%eax, %eax
	jg	.L112
	movq    i@GOTPCREL(%rip), %r11
	xorl	%eax, %eax
	movl	%eax, 0(%r11)
.L113:
	movq    i@GOTPCREL(%rip), %rax
	movl	0(%rax), %eax
	cmpl	$100, %eax
	jge	.L114
	movq    ivector5@GOTPCREL(%rip), %r8
	movq    i@GOTPCREL(%rip), %rcx
	movl	0(%rcx), %edx
	leal	3(,%edx,2), %r10d
	movslq	%r10d, %rsi
	movl	$5, %ecx
	movl	%ecx, 0(%r8,%rsi,4)
	movq    i@GOTPCREL(%rip), %rsi
	movq    i@GOTPCREL(%rip), %rdi
	movl	0(%rdi), %ecx
	leal	1(%ecx), %edx
	movl	%edx, 0(%rsi)
	jmp	.L113
.L114:
	movq    i@GOTPCREL(%rip), %rax
	movl	0(%rax), %eax
	cmpl	$10, %eax
	jl	.L115
	movq    k5@GOTPCREL(%rip), %rax
	movq    i5@GOTPCREL(%rip), %r11
	movl	0(%r11), %ecx
	movq    i2@GOTPCREL(%rip), %rdi
	movl	0(%rdi), %edi
	leal	0(%ecx,%edi,1), %esi
	movl	%esi, 0(%rax)
	jmp	.L116
.L115:
	movq    j5@GOTPCREL(%rip), %rdi
	movq    i5@GOTPCREL(%rip), %r8
	movl	0(%r8), %r8d
	movq    i2@GOTPCREL(%rip), %r11
	movl	0(%r11), %eax
	leal	0(%r8d,%eax,1), %eax
	movl	%eax, 0(%rdi)
.L116:
	movq    ivector@GOTPCREL(%rip), %r8
	movl	$1, %r9d
	movl	%r9d, 0(%r8)
	leaq	__stringlit_1(%rip), %rdi
	movq    ivector@GOTPCREL(%rip), %r10
	movl	0(%r10), %esi
	movl	$0, %eax
	call	printf@PLT
	movq    ivector@GOTPCREL(%rip), %r11
	movq    i2@GOTPCREL(%rip), %rax
	movl	0(%rax), %r10d
	movslq	%r10d, %r10
	movl	$2, %eax
	movl	%eax, 0(%r11,%r10,4)
	leaq	__stringlit_1(%rip), %rdi
	movq    ivector@GOTPCREL(%rip), %rax
	movq    i2@GOTPCREL(%rip), %rdx
	movl	0(%rdx), %esi
	movslq	%esi, %r9
	movl	0(%rax,%r9,4), %esi
	movl	$0, %eax
	call	printf@PLT
	movq    ivector@GOTPCREL(%rip), %rdx
	movq    i2@GOTPCREL(%rip), %rsi
	movl	0(%rsi), %edi
	movslq	%edi, %rsi
	movl	$2, %r10d
	movl	%r10d, 0(%rdx,%rsi,4)
	leaq	__stringlit_1(%rip), %rdi
	movq    ivector@GOTPCREL(%rip), %rsi
	movq    i2@GOTPCREL(%rip), %rcx
	movl	0(%rcx), %r11d
	movslq	%r11d, %rdx
	movl	0(%rsi,%rdx,4), %esi
	movl	$0, %eax
	call	printf@PLT
	movq    ivector@GOTPCREL(%rip), %r10
	movl	$3, %r8d
	movl	%r8d, 8(%r10)
	leaq	__stringlit_1(%rip), %rdi
	movq    ivector@GOTPCREL(%rip), %r10
	movl	8(%r10), %esi
	movl	$0, %eax
	call	printf@PLT
	movq    h3@GOTPCREL(%rip), %rax
	movl	0(%rax), %r11d
	movq    k3@GOTPCREL(%rip), %r10
	movl	0(%r10), %r9d
	leal	0(%r11d,%r9d,1), %eax
	testl	%eax, %eax
	jl	.L117
	movq    h3@GOTPCREL(%rip), %rax
	movl	0(%rax), %r8d
	movq    k3@GOTPCREL(%rip), %r11
	movl	0(%r11), %r10d
	leal	0(%r8d,%r10d,1), %eax
	cmpl	$5, %eax
	setg	%al
	movzbl	%al, %eax
	jmp	.L118
.L117:
	movl	$1, %eax
.L118:
	cmpl	$0, %eax
	jne	.L119
	movq    m3@GOTPCREL(%rip), %r11
	movq    h3@GOTPCREL(%rip), %r8
	movl	0(%r8), %r8d
	movq    k3@GOTPCREL(%rip), %rdx
	movl	0(%rdx), %ecx
	leal	0(%r8d,%ecx,1), %eax
	movq    i3@GOTPCREL(%rip), %rsi
	movl	0(%rsi), %ecx
	cltd
	idivl	%ecx
	movl	%eax, 0(%r11)
	leaq	__stringlit_1(%rip), %rdi
	movq    m3@GOTPCREL(%rip), %r8
	movl	0(%r8), %esi
	movl	$0, %eax
	call	printf@PLT
	movq    g3@GOTPCREL(%rip), %rsi
	movq    i3@GOTPCREL(%rip), %r9
	movl	0(%r9), %ecx
	movq    h3@GOTPCREL(%rip), %r9
	movl	0(%r9), %r10d
	movq    k3@GOTPCREL(%rip), %r11
	movl	0(%r11), %r9d
	leal	0(%r10d,%r9d,1), %edx
	leal	0(%ecx,%edx,1), %r11d
	movl	%r11d, 0(%rsi)
	leaq	__stringlit_1(%rip), %rdi
	movq    g3@GOTPCREL(%rip), %rcx
	movl	0(%rcx), %esi
	movl	$0, %eax
	call	printf@PLT
	jmp	.L120
.L119:
	leaq	__stringlit_3(%rip), %rdi
	movl	$0, %eax
	call	printf@PLT
.L120:
	movq    i4@GOTPCREL(%rip), %rdi
	xorl	%r8d, %r8d
	movl	%r8d, 0(%rdi)
.L121:
	movq    i4@GOTPCREL(%rip), %rax
	movl	0(%rax), %eax
	cmpl	$2, %eax
	jg	.L122
	movq    ivector2@GOTPCREL(%rip), %rdi
	movq    i4@GOTPCREL(%rip), %rdx
	movl	0(%rdx), %edx
	movslq	%edx, %rsi
	movq    j@GOTPCREL(%rip), %r10
	movl	0(%r10), %eax
	movq    k@GOTPCREL(%rip), %rcx
	movl	0(%rcx), %r9d
	imull	%r9d, %eax
	movzbl	%al, %r11d
	movb	%r11b, 0(%rdi,%rsi,1)
	leaq	__stringlit_1(%rip), %rdi
	movq    ivector2@GOTPCREL(%rip), %rcx
	movq    i4@GOTPCREL(%rip), %r10
	movl	0(%r10), %esi
	movslq	%esi, %rdx
	movzbl	0(%rcx,%rdx,1), %esi
	movl	$0, %eax
	call	printf@PLT
	movq    i4@GOTPCREL(%rip), %r9
	movq    i4@GOTPCREL(%rip), %rax
	movl	0(%rax), %r8d
	leal	1(%r8d), %edx
	movl	%edx, 0(%r9)
	jmp	.L121
.L122:
	movl	$1, %edi
	leaq	__stringlit_4(%rip), %rsi
	call	dead_code
	call	unnecessary_loop
	movl	$7, %edi
	call	loop_jamming
	movl	$7, %edi
	call	loop_unrolling
	movl	$1, %edi
	movl	$2, %esi
	movl	$3, %edx
	movl	$4, %ecx
	movl	$5, %r8d
	call	jump_compression
	xorl	%eax, %eax
	addq	$8, %rsp
	ret
	.cfi_endproc
	.type	main, @function
	.size	main, . - main
	.section	.rodata.cst8,"aM",@progbits,8
	.align	8
.L106:	.long	0x33333333, 0x40033333
.L107:	.long	0x33333333, 0x40193333
.L108:	.long	0x0, 0x3ff00000
.L109:	.long	0x9abcaf48, 0x3e7ad7f2
	.text
	.align	16
	.globl dead_code
dead_code:
	.cfi_startproc
	subq	$8, %rsp
	.cfi_adjust_cfa_offset	8
	leaq	16(%rsp), %rax
	movq	%rax, 0(%rsp)
	xorl	%ecx, %ecx
	cmpl	$0, %ecx
	je	.L123
	leaq	__stringlit_5(%rip), %rdi
	movl	$0, %eax
	call	printf@PLT
.L123:
	addq	$8, %rsp
	ret
	.cfi_endproc
	.type	dead_code, @function
	.size	dead_code, . - dead_code
	.text
	.align	16
	.globl unnecessary_loop
unnecessary_loop:
	.cfi_startproc
	subq	$8, %rsp
	.cfi_adjust_cfa_offset	8
	leaq	16(%rsp), %rax
	movq	%rax, 0(%rsp)
	xorl	%eax, %eax
	movq    i@GOTPCREL(%rip), %r8
	xorl	%r10d, %r10d
	movl	%r10d, 0(%r8)
.L124:
	movq    i@GOTPCREL(%rip), %rcx
	movl	0(%rcx), %ecx
	cmpl	$5, %ecx
	jge	.L125
	movq    k5@GOTPCREL(%rip), %r8
	movq    j5@GOTPCREL(%rip), %rdx
	movl	0(%rdx), %ecx
	leal	0(%eax,%ecx,1), %esi
	movl	%esi, 0(%r8)
	movq    i@GOTPCREL(%rip), %r9
	movq    i@GOTPCREL(%rip), %rdi
	movl	0(%rdi), %edx
	leal	1(%edx), %r11d
	movl	%r11d, 0(%r9)
	jmp	.L124
.L125:
	leaq	__stringlit_1(%rip), %rdi
	movq    k5@GOTPCREL(%rip), %rsi
	movl	0(%rsi), %esi
	movl	$0, %eax
	call	printf@PLT
	addq	$8, %rsp
	ret
	.cfi_endproc
	.type	unnecessary_loop, @function
	.size	unnecessary_loop, . - unnecessary_loop
	.text
	.align	16
	.globl loop_jamming
loop_jamming:
	.cfi_startproc
	subq	$24, %rsp
	.cfi_adjust_cfa_offset	24
	leaq	32(%rsp), %rax
	movq	%rax, 0(%rsp)
	movq	%rbx, 8(%rsp)
	movq	%rdi, %rbx
	movq    i@GOTPCREL(%rip), %r11
	xorl	%edi, %edi
	movl	%edi, 0(%r11)
.L126:
	movq    i@GOTPCREL(%rip), %rsi
	movl	0(%rsi), %ecx
	cmpl	$5, %ecx
	jge	.L127
	movq    k5@GOTPCREL(%rip), %r11
	movq    j5@GOTPCREL(%rip), %rdx
	movl	0(%rdx), %ecx
	movq    i@GOTPCREL(%rip), %rdi
	movl	0(%rdi), %edx
	imull	%edx, %ecx
	leal	0(%ebx,%ecx,1), %r10d
	movl	%r10d, 0(%r11)
	leaq	__stringlit_1(%rip), %rdi
	movq    k5@GOTPCREL(%rip), %rsi
	movl	0(%rsi), %esi
	movl	$0, %eax
	call	printf@PLT
	movq    i@GOTPCREL(%rip), %rax
	movq    i@GOTPCREL(%rip), %r9
	movl	0(%r9), %esi
	leal	1(%esi), %edx
	movl	%edx, 0(%rax)
	jmp	.L126
.L127:
	movq    i@GOTPCREL(%rip), %rcx
	xorl	%eax, %eax
	movl	%eax, 0(%rcx)
.L128:
	movq    i@GOTPCREL(%rip), %rdi
	movl	0(%rdi), %edi
	cmpl	$5, %edi
	jge	.L129
	movq    i5@GOTPCREL(%rip), %rdx
	movq    k5@GOTPCREL(%rip), %r8
	movl	0(%r8), %esi
	movq	%rbx, %rax
	imull	%esi, %eax
	movq    i@GOTPCREL(%rip), %r8
	movl	0(%r8), %esi
	imull	%esi, %eax
	movl	%eax, 0(%rdx)
	leaq	__stringlit_1(%rip), %rdi
	movq    k5@GOTPCREL(%rip), %rcx
	movl	0(%rcx), %esi
	movl	$0, %eax
	call	printf@PLT
	movq    i@GOTPCREL(%rip), %r11
	movq    i@GOTPCREL(%rip), %r10
	movl	0(%r10), %r10d
	leal	1(%r10d), %r9d
	movl	%r9d, 0(%r11)
	jmp	.L128
.L129:
	movq	8(%rsp), %rbx
	addq	$24, %rsp
	ret
	.cfi_endproc
	.type	loop_jamming, @function
	.size	loop_jamming, . - loop_jamming
	.text
	.align	16
	.globl loop_unrolling
loop_unrolling:
	.cfi_startproc
	subq	$8, %rsp
	.cfi_adjust_cfa_offset	8
	leaq	16(%rsp), %rax
	movq	%rax, 0(%rsp)
	movq    i@GOTPCREL(%rip), %rdi
	xorl	%eax, %eax
	movl	%eax, 0(%rdi)
.L130:
	movq    i@GOTPCREL(%rip), %rax
	movl	0(%rax), %eax
	cmpl	$6, %eax
	jge	.L131
	movq    ivector4@GOTPCREL(%rip), %r11
	movq    i@GOTPCREL(%rip), %r8
	movl	0(%r8), %ecx
	movslq	%ecx, %rdx
	xorl	%edi, %edi
	movw	%di, 0(%r11,%rdx,2)
	leaq	__stringlit_1(%rip), %rdi
	movq    ivector4@GOTPCREL(%rip), %rdx
	movq    i@GOTPCREL(%rip), %r10
	movl	0(%r10), %ecx
	movslq	%ecx, %r9
	movswl	0(%rdx,%r9,2), %esi
	movl	$0, %eax
	call	printf@PLT
	movq    i@GOTPCREL(%rip), %rax
	movq    i@GOTPCREL(%rip), %r9
	movl	0(%r9), %esi
	leal	1(%esi), %esi
	movl	%esi, 0(%rax)
	jmp	.L130
.L131:
	addq	$8, %rsp
	ret
	.cfi_endproc
	.type	loop_unrolling, @function
	.size	loop_unrolling, . - loop_unrolling
	.text
	.align	16
	.globl jump_compression
jump_compression:
	.cfi_startproc
	subq	$56, %rsp
	.cfi_adjust_cfa_offset	56
	leaq	64(%rsp), %rax
	movq	%rax, 0(%rsp)
	movq	%rbx, 8(%rsp)
	movq	%rbp, 16(%rsp)
	movq	%r12, 24(%rsp)
	movq	%r13, 32(%rsp)
	movq	%r14, 40(%rsp)
	movq	%r8, %rbx
	movq	%rcx, %rbp
	movq	%rdx, %r12
	movq	%rsi, %r13
	movq	%rdi, %r14
.L132:
	cmpl	%r13d, %r14d
	jge	.L133
	cmpl	%r12d, %r13d
	jl	.L134
	leal	0(%r13d,%r12d,1), %r13d
	leaq	__stringlit_1(%rip), %rdi
	movq	%r13, %rsi
	movl	$0, %eax
	call	printf@PLT
	jmp	.L132
.L134:
	cmpl	%ebp, %r12d
	jl	.L135
	leal	0(%r12d,%ebp,1), %r12d
	jmp	.L136
.L135:
	cmpl	%ebx, %ebp
	jge	.L132
	leal	0(%ebp,%ebx,1), %ebp
	jmp	.L136
.L133:
	leal	0(%r14d,%r13d,1), %r14d
.L136:
	leal	0(%r14d,%r13d,1), %edx
	leal	0(%edx,%r12d,1), %esi
	leal	0(%esi,%ebp,1), %edi
	leal	0(%edi,%ebx,1), %eax
	movq	8(%rsp), %rbx
	movq	16(%rsp), %rbp
	movq	24(%rsp), %r12
	movq	32(%rsp), %r13
	movq	40(%rsp), %r14
	addq	$56, %rsp
	ret
	.cfi_endproc
	.type	jump_compression, @function
	.size	jump_compression, . - jump_compression

	.section .note.GNU-stack,"",%progbits
