# File generated by CompCert 3.17
# Command line: -O3 optbench.c -S -o speed_optimization/assembler/ccomp_bench.s -DNO_ZERO_DIVIDE
	.section	.rodata.str1.1,"aMS",@progbits,1
	.align	1
__stringlit_3:
	.ascii	"Common subexpression elimination\012\000"
	.type	__stringlit_3, @object
	.size	__stringlit_3, . - __stringlit_3
	.section	.rodata.str1.1,"aMS",@progbits,1
	.align	1
__stringlit_2:
	.ascii	"This compiler handles divide-by-zero as                     an error\012\000"
	.type	__stringlit_2, @object
	.size	__stringlit_2, . - __stringlit_2
	.section	.rodata.str1.1,"aMS",@progbits,1
	.align	1
__stringlit_1:
	.ascii	"%d\000"
	.type	__stringlit_1, @object
	.size	__stringlit_1, . - __stringlit_1
	.section	.rodata.str1.1,"aMS",@progbits,1
	.align	1
__stringlit_4:
	.ascii	"This line should not be printed\000"
	.type	__stringlit_4, @object
	.size	__stringlit_4, . - __stringlit_4
	.comm	i, 4, 4
	.comm	j, 4, 4
	.comm	k, 4, 4
	.comm	l, 4, 4
	.comm	m, 4, 4
	.comm	i2, 4, 4
	.comm	j2, 4, 4
	.comm	k2, 4, 4
	.comm	g3, 4, 4
	.comm	h3, 4, 4
	.comm	i3, 4, 4
	.comm	k3, 4, 4
	.comm	m3, 4, 4
	.comm	i4, 4, 4
	.comm	j4, 4, 4
	.comm	i5, 4, 4
	.comm	j5, 4, 4
	.comm	k5, 4, 4
	.comm	flt_1, 8, 8
	.comm	flt_2, 8, 8
	.comm	flt_3, 8, 8
	.comm	flt_4, 8, 8
	.comm	flt_5, 8, 8
	.comm	flt_6, 8, 8
	.comm	ivector, 12, 4
	.comm	ivector2, 3, 1
	.comm	ivector4, 12, 2
	.comm	ivector5, 1200, 4
	.text
	.align	16
	.globl main
main:
	.cfi_startproc
	subq	$8, %rsp
	.cfi_adjust_cfa_offset	8
	leaq	16(%rsp), %rax
	movq	%rax, 0(%rsp)
	movq    j4@GOTPCREL(%rip), %rdx
	movl	$2, %edi
	movl	%edi, 0(%rdx)
	leaq	__stringlit_1(%rip), %rdi
	movl	$2, %esi
	movl	$0, %eax
	call	printf@PLT
	movq    i2@GOTPCREL(%rip), %r10
	movl	0(%r10), %esi
	movq    j4@GOTPCREL(%rip), %r8
	movl	0(%r8), %eax
	cmpl	%eax, %esi
	jge	.L100
	movq    i4@GOTPCREL(%rip), %rcx
	movl	0(%rcx), %r8d
	cmpl	%eax, %r8d
	jge	.L100
	movl	$2, %edx
	movl	%edx, 0(%r10)
	leaq	__stringlit_1(%rip), %rdi
	movl	$2, %esi
	movl	$0, %eax
	call	printf@PLT
.L100:
	movq    j4@GOTPCREL(%rip), %r10
	movq    k5@GOTPCREL(%rip), %rax
	movl	0(%rax), %esi
	movl	%esi, 0(%r10)
	leaq	__stringlit_1(%rip), %rdi
	movl	$0, %eax
	call	printf@PLT
	movq    i2@GOTPCREL(%rip), %rax
	movl	0(%rax), %edx
	movq    j4@GOTPCREL(%rip), %rcx
	movl	0(%rcx), %r8d
	cmpl	%r8d, %edx
	jge	.L101
	movq    i4@GOTPCREL(%rip), %rax
	movl	0(%rax), %r11d
	cmpl	%r8d, %r11d
	jge	.L101
	movq    i5@GOTPCREL(%rip), %r11
	movl	$3, %r9d
	movl	%r9d, 0(%r11)
	leaq	__stringlit_1(%rip), %rdi
	movl	$3, %esi
	movl	$0, %eax
	call	printf@PLT
.L101:
	movq    i3@GOTPCREL(%rip), %rax
	movl	$3, %r8d
	movl	%r8d, 0(%rax)
	movq    flt_1@GOTPCREL(%rip), %r10
	movsd	.L102(%rip), %xmm0 # 8.69999999999999929
	movsd	%xmm0, 0(%r10)
	movq    i2@GOTPCREL(%rip), %r8
	movl	$5, %esi
	movl	%esi, 0(%r8)
	movq    j2@GOTPCREL(%rip), %r9
	movq    i@GOTPCREL(%rip), %r8
	movl	0(%r8), %esi
	movl	%esi, 0(%r9)
	movq    k2@GOTPCREL(%rip), %rdi
	movl	%esi, 0(%rdi)
	movq    i4@GOTPCREL(%rip), %r10
	movl	%esi, 0(%r10)
	movq    i5@GOTPCREL(%rip), %r8
	xorl	%r9d, %r9d
	movl	%r9d, 0(%r8)
	leaq	__stringlit_2(%rip), %rdi
	movl	$0, %eax
	call	printf@PLT
	movq    flt_3@GOTPCREL(%rip), %r11
	movsd	.L103(%rip), %xmm1 # 2.39999999999999991
	movsd	%xmm1, 0(%r11)
	movq    flt_4@GOTPCREL(%rip), %r11
	movsd	.L104(%rip), %xmm6 # 1.00000010000000006
	movsd	%xmm6, 0(%r11)
	movq    flt_5@GOTPCREL(%rip), %r11
	movq    flt_6@GOTPCREL(%rip), %rcx
	movsd	0(%rcx), %xmm0
	xorpd	%xmm11, %xmm11
	mulsd	%xmm11, %xmm0
	movsd	%xmm0, 0(%r11)
	movq    flt_2@GOTPCREL(%rip), %rdx
	movsd	0(%rdx), %xmm2
	mulsd	%xmm1, %xmm2
	movsd	%xmm2, 0(%rcx)
	movq    k3@GOTPCREL(%rip), %r9
	movl	$1, %esi
	movl	%esi, 0(%r9)
	movq    k2@GOTPCREL(%rip), %rsi
	movq    j5@GOTPCREL(%rip), %r9
	movl	0(%r9), %edi
	leal	0(,%edi,4), %edx
	movl	%edx, 0(%rsi)
	movq    i@GOTPCREL(%rip), %r9
	xorl	%eax, %eax
	movl	%eax, 0(%r9)
.L105:
	movq    i@GOTPCREL(%rip), %r10
	movl	0(%r10), %esi
	cmpl	$5, %esi
	jg	.L106
	movq    ivector4@GOTPCREL(%rip), %r8
	movslq	%esi, %rcx
	leal	0(,%esi,2), %eax
	movw	%ax, 0(%r8,%rcx,2)
	leal	1(%esi), %edi
	movl	%edi, 0(%r10)
	jmp	.L105
.L106:
	movq    j5@GOTPCREL(%rip), %r11
	xorl	%esi, %esi
	movl	%esi, 0(%r11)
	movq    k5@GOTPCREL(%rip), %r10
	movl	$10000, %r11d
	movl	%r11d, 0(%r10)
.L107:
	movq    k5@GOTPCREL(%rip), %rdx
	movl	0(%rdx), %r10d
	leal	-1(%r10d), %r11d
	movl	%r11d, 0(%rdx)
	movq    j5@GOTPCREL(%rip), %r8
	movl	0(%r8), %r10d
	leal	1(%r10d), %edi
	movl	%edi, 0(%r8)
	movq    i5@GOTPCREL(%rip), %rsi
	leal	0(%r11d,%r11d,2), %eax
	leal	0(%edi,%edi,4), %ecx
	cltd
	idivl	%ecx
	movl	%eax, 0(%rsi)
	testl	%r11d, %r11d
	jg	.L107
	movq    i@GOTPCREL(%rip), %rdx
	xorl	%r9d, %r9d
	movl	%r9d, 0(%rdx)
.L108:
	movq    i@GOTPCREL(%rip), %rdx
	movl	0(%rdx), %r8d
	cmpl	$100, %r8d
	jge	.L109
	movq    ivector5@GOTPCREL(%rip), %rsi
	leal	3(,%r8d,2), %edi
	movslq	%edi, %rcx
	movl	$5, %r9d
	movl	%r9d, 0(%rsi,%rcx,4)
	leal	1(%r8d), %esi
	movl	%esi, 0(%rdx)
	jmp	.L108
.L109:
	cmpl	$10, %r8d
	jl	.L110
	movq    k5@GOTPCREL(%rip), %rdx
	movq    i5@GOTPCREL(%rip), %r11
	movl	0(%r11), %edi
	movq    i2@GOTPCREL(%rip), %r8
	movl	0(%r8), %ecx
	leal	0(%edi,%ecx,1), %eax
	movl	%eax, 0(%rdx)
	jmp	.L111
.L110:
	movq    j5@GOTPCREL(%rip), %rax
	movq    i5@GOTPCREL(%rip), %rcx
	movl	0(%rcx), %r10d
	movq    i2@GOTPCREL(%rip), %r9
	movl	0(%r9), %ecx
	leal	0(%r10d,%ecx,1), %r10d
	movl	%r10d, 0(%rax)
.L111:
	movq    ivector@GOTPCREL(%rip), %r11
	movl	$1, %r10d
	movl	%r10d, 0(%r11)
	leaq	__stringlit_1(%rip), %rdi
	movl	$1, %esi
	movl	$0, %eax
	call	printf@PLT
	movq    ivector@GOTPCREL(%rip), %rcx
	movq    i2@GOTPCREL(%rip), %r11
	movl	0(%r11), %edi
	movslq	%edi, %rdi
	movl	$2, %esi
	movl	%esi, 0(%rcx,%rdi,4)
	leaq	__stringlit_1(%rip), %rdi
	movl	$0, %eax
	call	printf@PLT
	movq    ivector@GOTPCREL(%rip), %r8
	movq    i2@GOTPCREL(%rip), %r9
	movl	0(%r9), %ecx
	movslq	%ecx, %r9
	movl	$2, %esi
	movl	%esi, 0(%r8,%r9,4)
	leaq	__stringlit_1(%rip), %rdi
	movl	$0, %eax
	call	printf@PLT
	movq    ivector@GOTPCREL(%rip), %r9
	movl	$3, %eax
	movl	%eax, 8(%r9)
	leaq	__stringlit_1(%rip), %rdi
	movl	$3, %esi
	movl	$0, %eax
	call	printf@PLT
	movq    h3@GOTPCREL(%rip), %rax
	movl	0(%rax), %ecx
	movq    k3@GOTPCREL(%rip), %r11
	movl	0(%r11), %edx
	leal	0(%ecx,%edx,1), %eax
	testl	%eax, %eax
	jl	.L112
	cmpl	$5, %eax
	jg	.L112
	movq    m3@GOTPCREL(%rip), %rsi
	movq    i3@GOTPCREL(%rip), %rcx
	movl	0(%rcx), %ecx
	cltd
	idivl	%ecx
	movl	%eax, 0(%rsi)
	leaq	__stringlit_1(%rip), %rdi
	movq	%rax, %rsi
	movl	$0, %eax
	call	printf@PLT
	movq    g3@GOTPCREL(%rip), %rdi
	movq    i3@GOTPCREL(%rip), %r9
	movl	0(%r9), %eax
	movq    h3@GOTPCREL(%rip), %r10
	movl	0(%r10), %r11d
	movq    k3@GOTPCREL(%rip), %rdx
	movl	0(%rdx), %r8d
	leal	0(%r11d,%r8d,1), %esi
	leal	0(%eax,%esi,1), %esi
	movl	%esi, 0(%rdi)
	leaq	__stringlit_1(%rip), %rdi
	movl	$0, %eax
	call	printf@PLT
	jmp	.L113
.L112:
	leaq	__stringlit_3(%rip), %rdi
	movl	$0, %eax
	call	printf@PLT
.L113:
	movq    i4@GOTPCREL(%rip), %rdx
	xorl	%ecx, %ecx
	movl	%ecx, 0(%rdx)
.L114:
	movq    i4@GOTPCREL(%rip), %rax
	movl	0(%rax), %r11d
	cmpl	$2, %r11d
	jg	.L115
	movq    ivector2@GOTPCREL(%rip), %rdx
	movslq	%r11d, %r8
	movq    j@GOTPCREL(%rip), %rsi
	movl	0(%rsi), %ecx
	movq    k@GOTPCREL(%rip), %rsi
	movl	0(%rsi), %esi
	imull	%esi, %ecx
	movzbl	%cl, %esi
	movb	%sil, 0(%rdx,%r8,1)
	leaq	__stringlit_1(%rip), %rdi
	movl	$0, %eax
	call	printf@PLT
	movq    i4@GOTPCREL(%rip), %r9
	movl	0(%r9), %r11d
	leal	1(%r11d), %r10d
	movl	%r10d, 0(%r9)
	jmp	.L114
.L115:
	movl	$1, %edi
	leaq	__stringlit_4(%rip), %rsi
	call	dead_code
	call	unnecessary_loop
	movl	$7, %edi
	call	loop_jamming
	movl	$7, %edi
	call	loop_unrolling
	movl	$1, %edi
	movl	$2, %esi
	movl	$3, %edx
	movl	$4, %ecx
	movl	$5, %r8d
	call	jump_compression
	xorl	%eax, %eax
	addq	$8, %rsp
	ret
	.cfi_endproc
	.type	main, @function
	.size	main, . - main
	.section	.rodata.cst8,"aM",@progbits,8
	.align	8
.L102:	.long	0x66666666, 0x40216666
.L103:	.long	0x33333333, 0x40033333
.L104:	.long	0x1ad7f29b, 0x3ff00000
	.text
	.align	16
	.globl dead_code
dead_code:
	.cfi_startproc
	subq	$8, %rsp
	.cfi_adjust_cfa_offset	8
	leaq	16(%rsp), %rax
	movq	%rax, 0(%rsp)
	addq	$8, %rsp
	ret
	.cfi_endproc
	.type	dead_code, @function
	.size	dead_code, . - dead_code
	.text
	.align	16
	.globl unnecessary_loop
unnecessary_loop:
	.cfi_startproc
	subq	$8, %rsp
	.cfi_adjust_cfa_offset	8
	leaq	16(%rsp), %rax
	movq	%rax, 0(%rsp)
	movq    i@GOTPCREL(%rip), %r8
	xorl	%r11d, %r11d
	movl	%r11d, 0(%r8)
.L116:
	movq    i@GOTPCREL(%rip), %rcx
	movl	0(%rcx), %eax
	cmpl	$5, %eax
	jge	.L117
	movq    k5@GOTPCREL(%rip), %rsi
	movq    j5@GOTPCREL(%rip), %rdx
	movl	0(%rdx), %edx
	leal	0(%edx), %edi
	movl	%edi, 0(%rsi)
	leal	1(%eax), %r9d
	movl	%r9d, 0(%rcx)
	jmp	.L116
.L117:
	leaq	__stringlit_1(%rip), %rdi
	movq    k5@GOTPCREL(%rip), %rcx
	movl	0(%rcx), %esi
	movl	$0, %eax
	call	printf@PLT
	addq	$8, %rsp
	ret
	.cfi_endproc
	.type	unnecessary_loop, @function
	.size	unnecessary_loop, . - unnecessary_loop
	.text
	.align	16
	.globl loop_jamming
loop_jamming:
	.cfi_startproc
	subq	$24, %rsp
	.cfi_adjust_cfa_offset	24
	leaq	32(%rsp), %rax
	movq	%rax, 0(%rsp)
	movq	%rbx, 8(%rsp)
	movq	%rdi, %rbx
	movq    i@GOTPCREL(%rip), %r10
	xorl	%ecx, %ecx
	movl	%ecx, 0(%r10)
.L118:
	movq    i@GOTPCREL(%rip), %rdx
	movl	0(%rdx), %ecx
	cmpl	$5, %ecx
	jge	.L119
	movq    k5@GOTPCREL(%rip), %rdx
	movq    j5@GOTPCREL(%rip), %r8
	movl	0(%r8), %r8d
	imull	%ecx, %r8d
	leal	0(%ebx,%r8d,1), %esi
	movl	%esi, 0(%rdx)
	leaq	__stringlit_1(%rip), %rdi
	movl	$0, %eax
	call	printf@PLT
	movq    i@GOTPCREL(%rip), %r9
	movl	0(%r9), %r11d
	leal	1(%r11d), %edx
	movl	%edx, 0(%r9)
	jmp	.L118
.L119:
	xorl	%r10d, %r10d
	movl	%r10d, 0(%rdx)
.L120:
	movq    i@GOTPCREL(%rip), %rax
	movl	0(%rax), %edi
	cmpl	$5, %edi
	jge	.L121
	movq    i5@GOTPCREL(%rip), %r11
	movq    k5@GOTPCREL(%rip), %r8
	movl	0(%r8), %esi
	movq	%rbx, %rax
	imull	%esi, %eax
	imull	%edi, %eax
	movl	%eax, 0(%r11)
	leaq	__stringlit_1(%rip), %rdi
	movl	$0, %eax
	call	printf@PLT
	movq    i@GOTPCREL(%rip), %rsi
	movl	0(%rsi), %edx
	leal	1(%edx), %eax
	movl	%eax, 0(%rsi)
	jmp	.L120
.L121:
	movq	8(%rsp), %rbx
	addq	$24, %rsp
	ret
	.cfi_endproc
	.type	loop_jamming, @function
	.size	loop_jamming, . - loop_jamming
	.text
	.align	16
	.globl loop_unrolling
loop_unrolling:
	.cfi_startproc
	subq	$8, %rsp
	.cfi_adjust_cfa_offset	8
	leaq	16(%rsp), %rax
	movq	%rax, 0(%rsp)
	movq    i@GOTPCREL(%rip), %r8
	xorl	%r10d, %r10d
	movl	%r10d, 0(%r8)
.L122:
	movq    i@GOTPCREL(%rip), %rax
	movl	0(%rax), %eax
	cmpl	$6, %eax
	jge	.L123
	movq    ivector4@GOTPCREL(%rip), %r9
	movslq	%eax, %rdi
	xorl	%esi, %esi
	movw	%si, 0(%r9,%rdi,2)
	leaq	__stringlit_1(%rip), %rdi
	movl	$0, %eax
	call	printf@PLT
	movq    i@GOTPCREL(%rip), %rcx
	movl	0(%rcx), %edx
	leal	1(%edx), %esi
	movl	%esi, 0(%rcx)
	jmp	.L122
.L123:
	addq	$8, %rsp
	ret
	.cfi_endproc
	.type	loop_unrolling, @function
	.size	loop_unrolling, . - loop_unrolling
	.text
	.align	16
	.globl jump_compression
jump_compression:
	.cfi_startproc
	subq	$56, %rsp
	.cfi_adjust_cfa_offset	56
	leaq	64(%rsp), %rax
	movq	%rax, 0(%rsp)
	movq	%rbx, 8(%rsp)
	movq	%rbp, 16(%rsp)
	movq	%r12, 24(%rsp)
	movq	%r13, 32(%rsp)
	movq	%r14, 40(%rsp)
	movq	%r8, %rbx
	movq	%rcx, %rbp
	movq	%rdx, %r12
	movq	%rsi, %r13
	movq	%rdi, %r14
.L124:
	cmpl	%r13d, %r14d
	jge	.L125
	cmpl	%r12d, %r13d
	jl	.L126
	leal	0(%r13d,%r12d,1), %r13d
	leaq	__stringlit_1(%rip), %rdi
	movq	%r13, %rsi
	movl	$0, %eax
	call	printf@PLT
	jmp	.L124
.L126:
	cmpl	%ebp, %r12d
	jl	.L127
	leal	0(%r12d,%ebp,1), %r12d
	jmp	.L128
.L127:
	cmpl	%ebx, %ebp
	jge	.L124
	leal	0(%ebp,%ebx,1), %ebp
	jmp	.L128
.L125:
	leal	0(%r14d,%r13d,1), %r14d
.L128:
	leal	0(%r14d,%r13d,1), %edx
	leal	0(%edx,%r12d,1), %esi
	leal	0(%esi,%ebp,1), %edi
	leal	0(%edi,%ebx,1), %eax
	movq	8(%rsp), %rbx
	movq	16(%rsp), %rbp
	movq	24(%rsp), %r12
	movq	32(%rsp), %r13
	movq	40(%rsp), %r14
	addq	$56, %rsp
	ret
	.cfi_endproc
	.type	jump_compression, @function
	.size	jump_compression, . - jump_compression

	.section .note.GNU-stack,"",%progbits
